; Function Attrs: null_pointer_is_valid sspstrong uwtable
define internal void @dissect_pfcp_port_number(ptr noundef %0, ptr readnone captures(none) %1, ptr noundef %2, ptr noundef %3, i16 noundef zeroext %4, i8 zeroext %5, ptr readnone captures(none) %6) #0 {
  %8 = alloca i32, align 4
  call void @llvm.lifetime.start.p0(i64 4, ptr nonnull %8) #15
  %9 = load i32, ptr @hf_pfcp_port_number, align 4
  %10 = zext i16 %4 to i32
  %11 = call ptr @proto_tree_add_item_ret_uint(ptr noundef %2, i32 noundef %9, ptr noundef %0, i32 noundef 0, i32 noundef %10, i32 noundef 0, ptr noundef nonnull %8)
  %12 = load i32, ptr %8, align 4
  call void (ptr, ptr, ...) @proto_item_append_text(ptr noundef %3, ptr noundef nonnull @.str.2658, i32 noundef %12)
  call void @llvm.lifetime.end.p0(i64 4, ptr nonnull %8) #15
  ret void
}